; Function Attrs: mustprogress nounwind uwtable
define hidden noundef i32 @_ZN18GenericWaitBarrier4Cell16signal_if_neededEi(ptr noundef nonnull align 8 dereferenceable(172) %0, i32 noundef %1) local_unnamed_addr #0 align 2 {
  %3 = getelementptr inbounds i8, ptr %0, i64 128
  %4 = getelementptr inbounds i8, ptr %0, i64 168
  %smax = tail call i32 @llvm.smax.i32(i32 %1, i32 1)
  br label %5

5:                                                ; preds = %11, %2
  %.010 = phi i32 [ 0, %2 ], [ %12, %11 ]
  %6 = load volatile i32, ptr %4, align 8
  tail call void asm sideeffect "", "~{memory},~{dirflag},~{fpsr},~{flags}"() #4, !srcloc !6
  %7 = icmp eq i32 %6, 0
  br i1 %7, label %13, label %8

8:                                                ; preds = %5
  %9 = add nsw i32 %6, -1
  %10 = tail call noundef i32 asm sideeffect "lock cmpxchgl $1,($3)", "={ax},r,{ax},r,~{cc},~{memory},~{dirflag},~{fpsr},~{flags}"(i32 %9, i32 %6, ptr nonnull %4) #4, !srcloc !12
  %.not = icmp eq i32 %10, %6
  br i1 %.not, label %11, label %13

11:                                               ; preds = %8
  tail call void @_ZN14PosixSemaphore6signalEj(ptr noundef nonnull align 8 dereferenceable(32) %3, i32 noundef 1) #4
  %12 = add nuw nsw i32 %.010, 1
  %exitcond.not = icmp eq i32 %12, %smax
  br i1 %exitcond.not, label %13, label %5, !llvm.loop !15

13:                                               ; preds = %11, %8, %5
  %.0 = phi i32 [ 0, %5 ], [ %10, %8 ], [ %6, %11 ]
  ret i32 %.0
}